target datalayout = "e-m:e-p270:32:32-p271:32:32-p272:64:64-i64:64-i128:128-f80:128-n8:16:32:64-S128"
target triple = "x86_64-pc-linux-gnu"

@libctx = internal global ptr null, align 8
@.str.14 = private unnamed_addr constant [29 x i8] c"../openssl/test/sslapitest.c\00", align 1
@cert = internal global ptr null, align 8
@privkey = internal global ptr null, align 8
@.str.157 = private unnamed_addr constant [67 x i8] c"create_ssl_objects(sctx, cctx, &serverssl, &clientssl, NULL, NULL)\00", align 1
@.str.158 = private unnamed_addr constant [60 x i8] c"create_ssl_connection(serverssl, clientssl, SSL_ERROR_NONE)\00", align 1
@.str.193 = private unnamed_addr constant [3 x i8] c"-1\00", align 1
@.str.223 = private unnamed_addr constant [2 x i8] c"1\00", align 1
@.str.285 = private unnamed_addr constant [21 x i8] c"SSL_ERROR_WANT_WRITE\00", align 1
@.str.431 = private unnamed_addr constant [20 x i8] c"SSL_ERROR_WANT_READ\00", align 1
@.str.610 = private unnamed_addr constant [118 x i8] c"create_ssl_ctx_pair(libctx, TLS_server_method(), TLS_client_method(), TLS1_3_VERSION, 0, &sctx, &cctx, cert, privkey)\00", align 1
@.str.711 = private unnamed_addr constant [13 x i8] c"strlen(mess)\00", align 1
@test_key_update_peer_in_read.mess = internal global ptr @.str.707, align 8
@.str.727 = private unnamed_addr constant [41 x i8] c"BIO_new_bio_pair(&lbio, 512, &pbio, 512)\00", align 1
@.str.728 = private unnamed_addr constant [48 x i8] c"SSL_key_update(local, SSL_KEY_UPDATE_REQUESTED)\00", align 1
@.str.729 = private unnamed_addr constant [39 x i8] c"SSL_write(local, lwbuf, sizeof(lwbuf))\00", align 1
@.str.730 = private unnamed_addr constant [25 x i8] c"SSL_get_error(local, -1)\00", align 1
@.str.731 = private unnamed_addr constant [37 x i8] c"SSL_read(peer, prbuf, sizeof(prbuf))\00", align 1
@.str.732 = private unnamed_addr constant [24 x i8] c"SSL_get_error(peer, -1)\00", align 1
@.str.733 = private unnamed_addr constant [36 x i8] c"SSL_write(peer, mess, strlen(mess))\00", align 1
@.str.734 = private unnamed_addr constant [14 x i8] c"sizeof(lwbuf)\00", align 1
@.str.735 = private unnamed_addr constant [14 x i8] c"sizeof(prbuf)\00", align 1
@.str.736 = private unnamed_addr constant [37 x i8] c"SSL_write(local, mess, strlen(mess))\00", align 1

; Function Attrs: nounwind uwtable
define internal i32 @test_key_update_peer_in_read(i32 noundef %0) #0 {
  %2 = alloca i32, align 4
  %3 = alloca ptr, align 8
  %4 = alloca ptr, align 8
  %5 = alloca ptr, align 8
  %6 = alloca ptr, align 8
  %7 = alloca i32, align 4
  %8 = alloca [515 x i8], align 16
  %9 = alloca [515 x i8], align 16
  %10 = alloca ptr, align 8
  %11 = alloca ptr, align 8
  %12 = alloca ptr, align 8
  %13 = alloca ptr, align 8
  store i32 %0, ptr %2, align 4, !tbaa !13
  call void @llvm.lifetime.start.p0(i64 8, ptr %3) #9
  store ptr null, ptr %3, align 8, !tbaa !19
  call void @llvm.lifetime.start.p0(i64 8, ptr %4) #9
  store ptr null, ptr %4, align 8, !tbaa !19
  call void @llvm.lifetime.start.p0(i64 8, ptr %5) #9
  store ptr null, ptr %5, align 8, !tbaa !21
  call void @llvm.lifetime.start.p0(i64 8, ptr %6) #9
  store ptr null, ptr %6, align 8, !tbaa !21
  call void @llvm.lifetime.start.p0(i64 4, ptr %7) #9
  store i32 0, ptr %7, align 4, !tbaa !13
  call void @llvm.lifetime.start.p0(i64 515, ptr %8) #9
  call void @llvm.lifetime.start.p0(i64 515, ptr %9) #9
  call void @llvm.memset.p0.i64(ptr align 16 %9, i8 0, i64 515, i1 false)
  call void @llvm.lifetime.start.p0(i64 8, ptr %10) #9
  store ptr null, ptr %10, align 8, !tbaa !29
  call void @llvm.lifetime.start.p0(i64 8, ptr %11) #9
  store ptr null, ptr %11, align 8, !tbaa !29
  call void @llvm.lifetime.start.p0(i64 8, ptr %12) #9
  store ptr null, ptr %12, align 8, !tbaa !21
  call void @llvm.lifetime.start.p0(i64 8, ptr %13) #9
  store ptr null, ptr %13, align 8, !tbaa !21
  %14 = load ptr, ptr @libctx, align 8, !tbaa !4
  %15 = call ptr @TLS_server_method()
  %16 = call ptr @TLS_client_method()
  %17 = load ptr, ptr @cert, align 8, !tbaa !11
  %18 = load ptr, ptr @privkey, align 8, !tbaa !11
  %19 = call i32 @create_ssl_ctx_pair(ptr noundef %14, ptr noundef %15, ptr noundef %16, i32 noundef 772, i32 noundef 0, ptr noundef %4, ptr noundef %3, ptr noundef %17, ptr noundef %18)
  %20 = icmp ne i32 %19, 0
  %21 = zext i1 %20 to i32
  %22 = call i32 @test_true(ptr noundef @.str.14, i32 noundef 6991, ptr noundef @.str.610, i32 noundef %21)
  %23 = icmp ne i32 %22, 0
  br i1 %23, label %24, label %40

24:                                               ; preds = %1
  %25 = load ptr, ptr %4, align 8, !tbaa !19
  %26 = load ptr, ptr %3, align 8, !tbaa !19
  %27 = call i32 @create_ssl_objects(ptr noundef %25, ptr noundef %26, ptr noundef %6, ptr noundef %5, ptr noundef null, ptr noundef null)
  %28 = icmp ne i32 %27, 0
  %29 = zext i1 %28 to i32
  %30 = call i32 @test_true(ptr noundef @.str.14, i32 noundef 6993, ptr noundef @.str.157, i32 noundef %29)
  %31 = icmp ne i32 %30, 0
  br i1 %31, label %32, label %40

32:                                               ; preds = %24
  %33 = load ptr, ptr %6, align 8, !tbaa !21
  %34 = load ptr, ptr %5, align 8, !tbaa !21
  %35 = call i32 @create_ssl_connection(ptr noundef %33, ptr noundef %34, i32 noundef 0)
  %36 = icmp ne i32 %35, 0
  %37 = zext i1 %36 to i32
  %38 = call i32 @test_true(ptr noundef @.str.14, i32 noundef 6995, ptr noundef @.str.158, i32 noundef %37)
  %39 = icmp ne i32 %38, 0
  br i1 %39, label %41, label %40

40:                                               ; preds = %32, %24, %1
  br label %148

41:                                               ; preds = %32
  %42 = load i32, ptr %2, align 4, !tbaa !13
  %43 = icmp eq i32 %42, 0
  br i1 %43, label %44, label %46

44:                                               ; preds = %41
  %45 = load ptr, ptr %5, align 8, !tbaa !21
  br label %48

46:                                               ; preds = %41
  %47 = load ptr, ptr %6, align 8, !tbaa !21
  br label %48

48:                                               ; preds = %46, %44
  %49 = phi ptr [ %45, %44 ], [ %47, %46 ]
  store ptr %49, ptr %12, align 8, !tbaa !21
  %50 = load i32, ptr %2, align 4, !tbaa !13
  %51 = icmp eq i32 %50, 0
  br i1 %51, label %52, label %54

52:                                               ; preds = %48
  %53 = load ptr, ptr %6, align 8, !tbaa !21
  br label %56

54:                                               ; preds = %48
  %55 = load ptr, ptr %5, align 8, !tbaa !21
  br label %56

56:                                               ; preds = %54, %52
  %57 = phi ptr [ %53, %52 ], [ %55, %54 ]
  store ptr %57, ptr %13, align 8, !tbaa !21
  %58 = call i32 @BIO_new_bio_pair(ptr noundef %10, i64 noundef 512, ptr noundef %11, i64 noundef 512)
  %59 = call i32 @test_int_eq(ptr noundef @.str.14, i32 noundef 7001, ptr noundef @.str.727, ptr noundef @.str.223, i32 noundef %58, i32 noundef 1)
  %60 = icmp ne i32 %59, 0
  br i1 %60, label %62, label %61

61:                                               ; preds = %56
  br label %148

62:                                               ; preds = %56
  %63 = load ptr, ptr %12, align 8, !tbaa !21
  %64 = load ptr, ptr %10, align 8, !tbaa !29
  %65 = load ptr, ptr %10, align 8, !tbaa !29
  call void @SSL_set_bio(ptr noundef %63, ptr noundef %64, ptr noundef %65)
  %66 = load ptr, ptr %13, align 8, !tbaa !21
  %67 = load ptr, ptr %11, align 8, !tbaa !29
  %68 = load ptr, ptr %11, align 8, !tbaa !29
  call void @SSL_set_bio(ptr noundef %66, ptr noundef %67, ptr noundef %68)
  %69 = load ptr, ptr %12, align 8, !tbaa !21
  %70 = call i32 @SSL_key_update(ptr noundef %69, i32 noundef 1)
  %71 = icmp ne i32 %70, 0
  %72 = zext i1 %71 to i32
  %73 = call i32 @test_true(ptr noundef @.str.14, i32 noundef 7013, ptr noundef @.str.728, i32 noundef %72)
  %74 = icmp ne i32 %73, 0
  br i1 %74, label %75, label %86

75:                                               ; preds = %62
  %76 = load ptr, ptr %12, align 8, !tbaa !21
  %77 = getelementptr inbounds [515 x i8], ptr %9, i64 0, i64 0
  %78 = call i32 @SSL_write(ptr noundef %76, ptr noundef %77, i32 noundef 515)
  %79 = call i32 @test_int_eq(ptr noundef @.str.14, i32 noundef 7014, ptr noundef @.str.729, ptr noundef @.str.193, i32 noundef %78, i32 noundef -1)
  %80 = icmp ne i32 %79, 0
  br i1 %80, label %81, label %86

81:                                               ; preds = %75
  %82 = load ptr, ptr %12, align 8, !tbaa !21
  %83 = call i32 @SSL_get_error(ptr noundef %82, i32 noundef -1)
  %84 = call i32 @test_int_eq(ptr noundef @.str.14, i32 noundef 7015, ptr noundef @.str.730, ptr noundef @.str.285, i32 noundef %83, i32 noundef 3)
  %85 = icmp ne i32 %84, 0
  br i1 %85, label %87, label %86

86:                                               ; preds = %81, %75, %62
  br label %148

87:                                               ; preds = %81
  %88 = load ptr, ptr %13, align 8, !tbaa !21
  %89 = getelementptr inbounds [515 x i8], ptr %8, i64 0, i64 0
  %90 = call i32 @SSL_read(ptr noundef %88, ptr noundef %89, i32 noundef 515)
  %91 = call i32 @test_int_eq(ptr noundef @.str.14, i32 noundef 7022, ptr noundef @.str.731, ptr noundef @.str.193, i32 noundef %90, i32 noundef -1)
  %92 = icmp ne i32 %91, 0
  br i1 %92, label %93, label %98

93:                                               ; preds = %87
  %94 = load ptr, ptr %13, align 8, !tbaa !21
  %95 = call i32 @SSL_get_error(ptr noundef %94, i32 noundef -1)
  %96 = call i32 @test_int_eq(ptr noundef @.str.14, i32 noundef 7023, ptr noundef @.str.732, ptr noundef @.str.431, i32 noundef %95, i32 noundef 2)
  %97 = icmp ne i32 %96, 0
  br i1 %97, label %99, label %98

98:                                               ; preds = %93, %87
  br label %148

99:                                               ; preds = %93
  %100 = load ptr, ptr %13, align 8, !tbaa !21
  %101 = load ptr, ptr @test_key_update_peer_in_read.mess, align 8, !tbaa !11
  %102 = load ptr, ptr @test_key_update_peer_in_read.mess, align 8, !tbaa !11
  %103 = call i64 @strlen(ptr noundef %102) #10
  %104 = trunc i64 %103 to i32
  %105 = call i32 @SSL_write(ptr noundef %100, ptr noundef %101, i32 noundef %104)
  %106 = load ptr, ptr @test_key_update_peer_in_read.mess, align 8, !tbaa !11
  %107 = call i64 @strlen(ptr noundef %106) #10
  %108 = trunc i64 %107 to i32
  %109 = call i32 @test_int_eq(ptr noundef @.str.14, i32 noundef 7027, ptr noundef @.str.733, ptr noundef @.str.711, i32 noundef %105, i32 noundef %108)
  %110 = icmp ne i32 %109, 0
  br i1 %110, label %112, label %111

111:                                              ; preds = %99
  br label %148

112:                                              ; preds = %99
  %113 = load ptr, ptr %12, align 8, !tbaa !21
  %114 = getelementptr inbounds [515 x i8], ptr %9, i64 0, i64 0
  %115 = call i32 @SSL_write(ptr noundef %113, ptr noundef %114, i32 noundef 515)
  %116 = call i32 @test_int_eq(ptr noundef @.str.14, i32 noundef 7034, ptr noundef @.str.729, ptr noundef @.str.734, i32 noundef %115, i32 noundef 515)
  %117 = icmp ne i32 %116, 0
  br i1 %117, label %118, label %124

118:                                              ; preds = %112
  %119 = load ptr, ptr %13, align 8, !tbaa !21
  %120 = getelementptr inbounds [515 x i8], ptr %8, i64 0, i64 0
  %121 = call i32 @SSL_read(ptr noundef %119, ptr noundef %120, i32 noundef 515)
  %122 = call i32 @test_int_eq(ptr noundef @.str.14, i32 noundef 7035, ptr noundef @.str.731, ptr noundef @.str.735, i32 noundef %121, i32 noundef 515)
  %123 = icmp ne i32 %122, 0
  br i1 %123, label %125, label %124

124:                                              ; preds = %118, %112
  br label %148

125:                                              ; preds = %118
  %126 = load ptr, ptr %12, align 8, !tbaa !21
  %127 = load ptr, ptr @test_key_update_peer_in_read.mess, align 8, !tbaa !11
  %128 = load ptr, ptr @test_key_update_peer_in_read.mess, align 8, !tbaa !11
  %129 = call i64 @strlen(ptr noundef %128) #10
  %130 = trunc i64 %129 to i32
  %131 = call i32 @SSL_write(ptr noundef %126, ptr noundef %127, i32 noundef %130)
  %132 = load ptr, ptr @test_key_update_peer_in_read.mess, align 8, !tbaa !11
  %133 = call i64 @strlen(ptr noundef %132) #10
  %134 = trunc i64 %133 to i32
  %135 = call i32 @test_int_eq(ptr noundef @.str.14, i32 noundef 7039, ptr noundef @.str.736, ptr noundef @.str.711, i32 noundef %131, i32 noundef %134)
  %136 = icmp ne i32 %135, 0
  br i1 %136, label %137, label %146

137:                                              ; preds = %125
  %138 = load ptr, ptr %13, align 8, !tbaa !21
  %139 = getelementptr inbounds [515 x i8], ptr %8, i64 0, i64 0
  %140 = call i32 @SSL_read(ptr noundef %138, ptr noundef %139, i32 noundef 515)
  %141 = load ptr, ptr @test_key_update_peer_in_read.mess, align 8, !tbaa !11
  %142 = call i64 @strlen(ptr noundef %141) #10
  %143 = trunc i64 %142 to i32
  %144 = call i32 @test_int_eq(ptr noundef @.str.14, i32 noundef 7040, ptr noundef @.str.731, ptr noundef @.str.711, i32 noundef %140, i32 noundef %143)
  %145 = icmp ne i32 %144, 0
  br i1 %145, label %147, label %146

146:                                              ; preds = %137, %125
  br label %148

147:                                              ; preds = %137
  store i32 1, ptr %7, align 4, !tbaa !13
  br label %148

148:                                              ; preds = %147, %146, %124, %111, %98, %86, %61, %40
  %149 = load ptr, ptr %6, align 8, !tbaa !21
  call void @SSL_free(ptr noundef %149)
  %150 = load ptr, ptr %5, align 8, !tbaa !21
  call void @SSL_free(ptr noundef %150)
  %151 = load ptr, ptr %4, align 8, !tbaa !19
  call void @SSL_CTX_free(ptr noundef %151)
  %152 = load ptr, ptr %3, align 8, !tbaa !19
  call void @SSL_CTX_free(ptr noundef %152)
  %153 = load i32, ptr %7, align 4, !tbaa !13
  call void @llvm.lifetime.end.p0(i64 8, ptr %13) #9
  call void @llvm.lifetime.end.p0(i64 8, ptr %12) #9
  call void @llvm.lifetime.end.p0(i64 8, ptr %11) #9
  call void @llvm.lifetime.end.p0(i64 8, ptr %10) #9
  call void @llvm.lifetime.end.p0(i64 515, ptr %9) #9
  call void @llvm.lifetime.end.p0(i64 515, ptr %8) #9
  call void @llvm.lifetime.end.p0(i64 4, ptr %7) #9
  call void @llvm.lifetime.end.p0(i64 8, ptr %6) #9
  call void @llvm.lifetime.end.p0(i64 8, ptr %5) #9
  call void @llvm.lifetime.end.p0(i64 8, ptr %4) #9
  call void @llvm.lifetime.end.p0(i64 8, ptr %3) #9
  ret i32 %153
}