; Function Attrs: nounwind uwtable
define internal range(i32 0, 2) i32 @test_key_update_peer_in_read(i32 noundef %0) #1 {
  %2 = alloca ptr, align 8
  %3 = alloca ptr, align 8
  %4 = alloca ptr, align 8
  %5 = alloca ptr, align 8
  %6 = alloca [515 x i8], align 16
  %7 = alloca [515 x i8], align 16
  %8 = alloca ptr, align 8
  %9 = alloca ptr, align 8
  call void @llvm.lifetime.start.p0(i64 8, ptr nonnull %2) #24
  store ptr null, ptr %2, align 8, !tbaa !19
  call void @llvm.lifetime.start.p0(i64 8, ptr nonnull %3) #24
  store ptr null, ptr %3, align 8, !tbaa !19
  call void @llvm.lifetime.start.p0(i64 8, ptr nonnull %4) #24
  store ptr null, ptr %4, align 8, !tbaa !21
  call void @llvm.lifetime.start.p0(i64 8, ptr nonnull %5) #24
  store ptr null, ptr %5, align 8, !tbaa !21
  call void @llvm.lifetime.start.p0(i64 515, ptr nonnull %6) #24
  call void @llvm.lifetime.start.p0(i64 515, ptr nonnull %7) #24
  call void @llvm.memset.p0.i64(ptr noundef nonnull align 16 dereferenceable(515) %7, i8 0, i64 515, i1 false)
  call void @llvm.lifetime.start.p0(i64 8, ptr nonnull %8) #24
  store ptr null, ptr %8, align 8, !tbaa !69
  call void @llvm.lifetime.start.p0(i64 8, ptr nonnull %9) #24
  store ptr null, ptr %9, align 8, !tbaa !69
  %10 = load ptr, ptr @libctx, align 8, !tbaa !4
  %11 = tail call ptr @TLS_server_method() #24
  %12 = tail call ptr @TLS_client_method() #24
  %13 = load ptr, ptr @cert, align 8, !tbaa !11
  %14 = load ptr, ptr @privkey, align 8, !tbaa !11
  %15 = call i32 @create_ssl_ctx_pair(ptr noundef %10, ptr noundef %11, ptr noundef %12, i32 noundef 772, i32 noundef 0, ptr noundef nonnull %3, ptr noundef nonnull %2, ptr noundef %13, ptr noundef %14) #24
  %16 = icmp ne i32 %15, 0
  %17 = zext i1 %16 to i32
  %18 = call i32 @test_true(ptr noundef nonnull @.str.14, i32 noundef 6991, ptr noundef nonnull @.str.610, i32 noundef %17) #24
  %.not = icmp eq i32 %18, 0
  br i1 %.not, label %75, label %19

19:                                               ; preds = %1
  %20 = load ptr, ptr %3, align 8, !tbaa !19
  %21 = load ptr, ptr %2, align 8, !tbaa !19
  %22 = call i32 @create_ssl_objects(ptr noundef %20, ptr noundef %21, ptr noundef nonnull %5, ptr noundef nonnull %4, ptr noundef null, ptr noundef null) #24
  %23 = icmp ne i32 %22, 0
  %24 = zext i1 %23 to i32
  %25 = call i32 @test_true(ptr noundef nonnull @.str.14, i32 noundef 6993, ptr noundef nonnull @.str.157, i32 noundef %24) #24
  %.not14 = icmp eq i32 %25, 0
  br i1 %.not14, label %75, label %26

26:                                               ; preds = %19
  %27 = load ptr, ptr %5, align 8, !tbaa !21
  %28 = load ptr, ptr %4, align 8, !tbaa !21
  %29 = call i32 @create_ssl_connection(ptr noundef %27, ptr noundef %28, i32 noundef 0) #24
  %30 = icmp ne i32 %29, 0
  %31 = zext i1 %30 to i32
  %32 = call i32 @test_true(ptr noundef nonnull @.str.14, i32 noundef 6995, ptr noundef nonnull @.str.158, i32 noundef %31) #24
  %.not15 = icmp eq i32 %32, 0
  br i1 %.not15, label %75, label %33

33:                                               ; preds = %26
  %34 = icmp eq i32 %0, 0
  %35 = load ptr, ptr %4, align 8
  %36 = load ptr, ptr %5, align 8
  %37 = select i1 %34, ptr %35, ptr %36
  %38 = select i1 %34, ptr %36, ptr %35
  %39 = call i32 @BIO_new_bio_pair(ptr noundef nonnull %8, i64 noundef 512, ptr noundef nonnull %9, i64 noundef 512) #24
  %40 = call i32 @test_int_eq(ptr noundef nonnull @.str.14, i32 noundef 7001, ptr noundef nonnull @.str.727, ptr noundef nonnull @.str.223, i32 noundef %39, i32 noundef 1) #24
  %.not16 = icmp eq i32 %40, 0
  br i1 %.not16, label %75, label %41

41:                                               ; preds = %33
  %42 = load ptr, ptr %8, align 8, !tbaa !69
  call void @SSL_set_bio(ptr noundef %37, ptr noundef %42, ptr noundef %42) #24
  %43 = load ptr, ptr %9, align 8, !tbaa !69
  call void @SSL_set_bio(ptr noundef %38, ptr noundef %43, ptr noundef %43) #24
  %44 = call i32 @SSL_key_update(ptr noundef %37, i32 noundef 1) #24
  %45 = icmp ne i32 %44, 0
  %46 = zext i1 %45 to i32
  %47 = call i32 @test_true(ptr noundef nonnull @.str.14, i32 noundef 7013, ptr noundef nonnull @.str.728, i32 noundef %46) #24
  %.not17 = icmp eq i32 %47, 0
  br i1 %.not17, label %75, label %48

48:                                               ; preds = %41
  %49 = call i32 @SSL_write(ptr noundef %37, ptr noundef nonnull %7, i32 noundef 515) #24
  %50 = call i32 @test_int_eq(ptr noundef nonnull @.str.14, i32 noundef 7014, ptr noundef nonnull @.str.729, ptr noundef nonnull @.str.193, i32 noundef %49, i32 noundef -1) #24
  %.not18 = icmp eq i32 %50, 0
  br i1 %.not18, label %75, label %51

51:                                               ; preds = %48
  %52 = call i32 @SSL_get_error(ptr noundef %37, i32 noundef -1) #24
  %53 = call i32 @test_int_eq(ptr noundef nonnull @.str.14, i32 noundef 7015, ptr noundef nonnull @.str.730, ptr noundef nonnull @.str.285, i32 noundef %52, i32 noundef 3) #24
  %.not19 = icmp eq i32 %53, 0
  br i1 %.not19, label %75, label %54

54:                                               ; preds = %51
  %55 = call i32 @SSL_read(ptr noundef %38, ptr noundef nonnull %6, i32 noundef 515) #24
  %56 = call i32 @test_int_eq(ptr noundef nonnull @.str.14, i32 noundef 7022, ptr noundef nonnull @.str.731, ptr noundef nonnull @.str.193, i32 noundef %55, i32 noundef -1) #24
  %.not20 = icmp eq i32 %56, 0
  br i1 %.not20, label %75, label %57

57:                                               ; preds = %54
  %58 = call i32 @SSL_get_error(ptr noundef %38, i32 noundef -1) #24
  %59 = call i32 @test_int_eq(ptr noundef nonnull @.str.14, i32 noundef 7023, ptr noundef nonnull @.str.732, ptr noundef nonnull @.str.431, i32 noundef %58, i32 noundef 2) #24
  %.not21 = icmp eq i32 %59, 0
  br i1 %.not21, label %75, label %60

60:                                               ; preds = %57
  %61 = call i32 @SSL_write(ptr noundef %38, ptr noundef nonnull @__const.test_shutdown.msg, i32 noundef 14) #24
  %62 = call i32 @test_int_eq(ptr noundef nonnull @.str.14, i32 noundef 7027, ptr noundef nonnull @.str.733, ptr noundef nonnull @.str.711, i32 noundef %61, i32 noundef 14) #24
  %.not22 = icmp eq i32 %62, 0
  br i1 %.not22, label %75, label %63

63:                                               ; preds = %60
  %64 = call i32 @SSL_write(ptr noundef %37, ptr noundef nonnull %7, i32 noundef 515) #24
  %65 = call i32 @test_int_eq(ptr noundef nonnull @.str.14, i32 noundef 7034, ptr noundef nonnull @.str.729, ptr noundef nonnull @.str.734, i32 noundef %64, i32 noundef 515) #24
  %.not23 = icmp eq i32 %65, 0
  br i1 %.not23, label %75, label %66

66:                                               ; preds = %63
  %67 = call i32 @SSL_read(ptr noundef %38, ptr noundef nonnull %6, i32 noundef 515) #24
  %68 = call i32 @test_int_eq(ptr noundef nonnull @.str.14, i32 noundef 7035, ptr noundef nonnull @.str.731, ptr noundef nonnull @.str.735, i32 noundef %67, i32 noundef 515) #24
  %.not24 = icmp eq i32 %68, 0
  br i1 %.not24, label %75, label %69

69:                                               ; preds = %66
  %70 = call i32 @SSL_write(ptr noundef %37, ptr noundef nonnull @__const.test_shutdown.msg, i32 noundef 14) #24
  %71 = call i32 @test_int_eq(ptr noundef nonnull @.str.14, i32 noundef 7039, ptr noundef nonnull @.str.736, ptr noundef nonnull @.str.711, i32 noundef %70, i32 noundef 14) #24
  %.not25 = icmp eq i32 %71, 0
  br i1 %.not25, label %75, label %72

72:                                               ; preds = %69
  %73 = call i32 @SSL_read(ptr noundef %38, ptr noundef nonnull %6, i32 noundef 515) #24
  %74 = call i32 @test_int_eq(ptr noundef nonnull @.str.14, i32 noundef 7040, ptr noundef nonnull @.str.731, ptr noundef nonnull @.str.711, i32 noundef %73, i32 noundef 14) #24
  %.not26 = icmp ne i32 %74, 0
  %spec.select = zext i1 %.not26 to i32
  br label %75

75:                                               ; preds = %72, %69, %63, %66, %60, %54, %57, %41, %48, %51, %33, %1, %19, %26
  %.0 = phi i32 [ 0, %69 ], [ 0, %66 ], [ 0, %63 ], [ 0, %60 ], [ 0, %57 ], [ 0, %54 ], [ 0, %51 ], [ 0, %48 ], [ 0, %41 ], [ 0, %33 ], [ 0, %26 ], [ 0, %19 ], [ 0, %1 ], [ %spec.select, %72 ]
  %76 = load ptr, ptr %5, align 8, !tbaa !21
  call void @SSL_free(ptr noundef %76) #24
  %77 = load ptr, ptr %4, align 8, !tbaa !21
  call void @SSL_free(ptr noundef %77) #24
  %78 = load ptr, ptr %3, align 8, !tbaa !19
  call void @SSL_CTX_free(ptr noundef %78) #24
  %79 = load ptr, ptr %2, align 8, !tbaa !19
  call void @SSL_CTX_free(ptr noundef %79) #24
  call void @llvm.lifetime.end.p0(i64 8, ptr nonnull %9) #24
  call void @llvm.lifetime.end.p0(i64 8, ptr nonnull %8) #24
  call void @llvm.lifetime.end.p0(i64 515, ptr nonnull %7) #24
  call void @llvm.lifetime.end.p0(i64 515, ptr nonnull %6) #24
  call void @llvm.lifetime.end.p0(i64 8, ptr nonnull %5) #24
  call void @llvm.lifetime.end.p0(i64 8, ptr nonnull %4) #24
  call void @llvm.lifetime.end.p0(i64 8, ptr nonnull %3) #24
  call void @llvm.lifetime.end.p0(i64 8, ptr nonnull %2) #24
  ret i32 %.0
}